target datalayout = "e-m:e-p270:32:32-p271:32:32-p272:64:64-i64:64-i128:128-f80:128-n8:16:32:64-S128"
target triple = "x86_64-unknown-linux-gnu"

%"class.net::QuicStreamSequencer" = type <{ ptr, ptr, %"class.net::QuicStreamSequencerBuffer", i64, i8, [3 x i8], i32, i32, [4 x i8], ptr, i8, [7 x i8] }>
%"class.net::QuicStreamSequencerBuffer" = type { i64, i64, i64, %"class.std::__cxx11::list", i8, %"class.std::unique_ptr", i64, %"class.std::map" }
%"class.std::__cxx11::list" = type { %"class.std::__cxx11::_List_base" }
%"class.std::__cxx11::_List_base" = type { %"struct.std::__cxx11::_List_base<net::QuicStreamSequencerBuffer::Gap, std::allocator<net::QuicStreamSequencerBuffer::Gap>>::_List_impl" }
%"struct.std::__cxx11::_List_base<net::QuicStreamSequencerBuffer::Gap, std::allocator<net::QuicStreamSequencerBuffer::Gap>>::_List_impl" = type { %"struct.std::__detail::_List_node_header" }
%"struct.std::__detail::_List_node_header" = type { %"struct.std::__detail::_List_node_base", i64 }
%"struct.std::__detail::_List_node_base" = type { ptr, ptr }
%"class.std::unique_ptr" = type { %"struct.std::__uniq_ptr_data" }
%"struct.std::__uniq_ptr_data" = type { %"class.std::__uniq_ptr_impl" }
%"class.std::__uniq_ptr_impl" = type { %"class.std::tuple" }
%"class.std::tuple" = type { %"struct.std::_Tuple_impl" }
%"struct.std::_Tuple_impl" = type { %"struct.std::_Head_base.1" }
%"struct.std::_Head_base.1" = type { ptr }
%"class.std::map" = type { %"class.std::_Rb_tree" }
%"class.std::_Rb_tree" = type { %"struct.std::_Rb_tree<unsigned long, std::pair<const unsigned long, net::QuicStreamSequencerBuffer::FrameInfo>, std::_Select1st<std::pair<const unsigned long, net::QuicStreamSequencerBuffer::FrameInfo>>, std::less<unsigned long>>::_Rb_tree_impl" }
%"struct.std::_Rb_tree<unsigned long, std::pair<const unsigned long, net::QuicStreamSequencerBuffer::FrameInfo>, std::_Select1st<std::pair<const unsigned long, net::QuicStreamSequencerBuffer::FrameInfo>>, std::less<unsigned long>>::_Rb_tree_impl" = type { %"struct.std::_Rb_tree_key_compare", %"struct.std::_Rb_tree_header" }
%"struct.std::_Rb_tree_key_compare" = type { %"struct.std::less" }
%"struct.std::less" = type { i8 }
%"struct.std::_Rb_tree_header" = type { %"struct.std::_Rb_tree_node_base", i64 }
%"struct.std::_Rb_tree_node_base" = type { i32, ptr, ptr, ptr }

; Function Attrs: mustprogress uwtable
define dso_local noundef i32 @_ZN3net19QuicStreamSequencer5ReadvEPK5iovecm(ptr noundef nonnull align 8 dereferenceable(169) %this, ptr noundef %iov, i64 noundef %iov_len) #0 align 2 {
entry:
  %this.addr = alloca ptr, align 8
  %iov.addr = alloca ptr, align 8
  %iov_len.addr = alloca i64, align 8
  %bytes_read = alloca i64, align 8
  store ptr %this, ptr %this.addr, align 8
  store ptr %iov, ptr %iov.addr, align 8
  store i64 %iov_len, ptr %iov_len.addr, align 8
  %this1 = load ptr, ptr %this.addr, align 8
  %buffered_frames_ = getelementptr inbounds %"class.net::QuicStreamSequencer", ptr %this1, i32 0, i32 2
  %0 = load ptr, ptr %iov.addr, align 8
  %1 = load i64, ptr %iov_len.addr, align 8
  %call = call noundef i64 @_ZN3net25QuicStreamSequencerBuffer5ReadvEPK5iovecm(ptr noundef nonnull align 8 dereferenceable(120) %buffered_frames_, ptr noundef %0, i64 noundef %1)
  store i64 %call, ptr %bytes_read, align 8
  %stream_ = getelementptr inbounds %"class.net::QuicStreamSequencer", ptr %this1, i32 0, i32 1
  %2 = load ptr, ptr %stream_, align 8
  %3 = load i64, ptr %bytes_read, align 8
  call void @_ZN3net18ReliableQuicStream16AddBytesConsumedEm(ptr noundef nonnull align 8 dereferenceable(377) %2, i64 noundef %3)
  %4 = load i64, ptr %bytes_read, align 8
  %conv = trunc i64 %4 to i32
  ret i32 %conv
}