; Function Attrs: mustprogress uwtable
define dso_local noundef i32 @_ZN3net19QuicStreamSequencer5ReadvEPK5iovecm(ptr noundef nonnull align 8 dereferenceable(169) %this, ptr noundef %iov, i64 noundef %iov_len) local_unnamed_addr #0 align 2 {
entry:
  %buffered_frames_ = getelementptr inbounds i8, ptr %this, i64 16
  %call = tail call noundef i64 @_ZN3net25QuicStreamSequencerBuffer5ReadvEPK5iovecm(ptr noundef nonnull align 8 dereferenceable(120) %buffered_frames_, ptr noundef %iov, i64 noundef %iov_len)
  %stream_ = getelementptr inbounds i8, ptr %this, i64 8
  %0 = load ptr, ptr %stream_, align 8
  tail call void @_ZN3net18ReliableQuicStream16AddBytesConsumedEm(ptr noundef nonnull align 8 dereferenceable(377) %0, i64 noundef %call)
  %conv = trunc i64 %call to i32
  ret i32 %conv
}